target datalayout = "e-m:e-p270:32:32-p271:32:32-p272:64:64-i64:64-i128:128-f80:128-n8:16:32:64-S128"
target triple = "x86_64-unknown-linux-gnu"

%struct.nghttp2_frame_hd = type { i64, i32, i8, i8, i8 }
%struct.nghttp2_push_promise = type { %struct.nghttp2_frame_hd, i64, ptr, i64, i32, i8 }

; Function Attrs: mustprogress nounwind uwtable
define dso_local noundef i32 @_ZN4node5http210GetFrameIDEPK13nghttp2_frame(ptr noundef %frame) #4 {
entry:
  %frame.addr = alloca ptr, align 8
  store ptr %frame, ptr %frame.addr, align 8
  %0 = load ptr, ptr %frame.addr, align 8
  %type = getelementptr inbounds %struct.nghttp2_frame_hd, ptr %0, i32 0, i32 2
  %1 = load i8, ptr %type, align 4
  %conv = zext i8 %1 to i32
  %cmp = icmp eq i32 %conv, 5
  br i1 %cmp, label %cond.true, label %cond.false

cond.true:                                        ; preds = %entry
  %2 = load ptr, ptr %frame.addr, align 8
  %promised_stream_id = getelementptr inbounds %struct.nghttp2_push_promise, ptr %2, i32 0, i32 4
  %3 = load i32, ptr %promised_stream_id, align 8
  br label %cond.end

cond.false:                                       ; preds = %entry
  %4 = load ptr, ptr %frame.addr, align 8
  %stream_id = getelementptr inbounds %struct.nghttp2_frame_hd, ptr %4, i32 0, i32 1
  %5 = load i32, ptr %stream_id, align 8
  br label %cond.end

cond.end:                                         ; preds = %cond.false, %cond.true
  %cond = phi i32 [ %3, %cond.true ], [ %5, %cond.false ]
  ret i32 %cond
}