; Function Attrs: mustprogress nofree norecurse nosync nounwind willreturn memory(argmem: read) uwtable
define dso_local noundef i32 @_ZN4node5http210GetFrameIDEPK13nghttp2_frame(ptr nocapture noundef readonly %frame) local_unnamed_addr #16 {
entry:
  %type = getelementptr inbounds i8, ptr %frame, i64 12
  %0 = load i8, ptr %type, align 4
  %cmp = icmp eq i8 %0, 5
  %cond.in.v = select i1 %cmp, i64 40, i64 8
  %cond.in = getelementptr inbounds i8, ptr %frame, i64 %cond.in.v
  %cond = load i32, ptr %cond.in, align 8
  ret i32 %cond
}